(ideluge.core.torrentmanager
TorrentManagerState
p1
(dp2
S'torrents'
p3
(lp4
(ideluge.core.torrentmanager
TorrentState
p5
(dp6
S'max_download_speed'
p7
F-1
sS'move_completed_path'
p8
S'/Users/ravkod/Downloads'
p9
sS'paused'
p10
I00
sS'max_upload_slots'
p11
I-1
sS'prioritize_first_last'
p12
I00
sS'max_connections'
p13
I-1
sS'compact'
p14
I00
sS'queue'
p15
I-1
sS'file_priorities'
p16
(lp17
I1
asS'filename'
p18
S'Windows10x64&x86.iso [IPT].torrent'
p19
sS'max_upload_speed'
p20
F-1
sS'save_path'
p21
S'/Users/ravkod/Downloads'
p22
sS'time_added'
p23
F1671838840.6548221
sS'total_uploaded'
p24
L0L
sS'torrent_id'
p25
S'7aa3257eaccbbcac1427e920e12c98df65c83950'
p26
sS'auto_managed'
p27
I01
sS'stop_at_ratio'
p28
I00
sS'move_completed'
p29
I00
sS'trackers'
p30
(lp31
(dp32
S'send_stats'
p33
I01
sS'fails'
p34
I0
sS'verified'
p35
I00
sS'min_announce'
p36
NsS'url'
p37
S'https://routing.bgp.technology/4a13e634821314decdd5a951985cbcb4/announce'
p38
sS'fail_limit'
p39
I0
sS'next_announce'
p40
NsS'complete_sent'
p41
I00
sS'source'
p42
I1
sS'start_sent'
p43
I00
sS'tier'
p44
I0
sS'updating'
p45
I00
sa(dp46
S'send_stats'
p47
I01
sS'fails'
p48
I0
sS'verified'
p49
I00
sg36
NsS'url'
p50
S'https://ssl.empirehost.me/4a13e634821314decdd5a951985cbcb4/announce'
p51
sS'fail_limit'
p52
I0
sg40
NsS'complete_sent'
p53
I00
sS'source'
p54
I1
sS'start_sent'
p55
I00
sS'tier'
p56
I0
sS'updating'
p57
I00
sa(dp58
S'send_stats'
p59
I01
sS'fails'
p60
I0
sS'verified'
p61
I00
sg36
NsS'url'
p62
S'https://localhost.stackoverflow.tech/4a13e634821314decdd5a951985cbcb4/announce'
p63
sS'fail_limit'
p64
I0
sg40
NsS'complete_sent'
p65
I00
sS'source'
p66
I1
sS'start_sent'
p67
I00
sS'tier'
p68
I0
sS'updating'
p69
I00
sasS'magnet'
p70
NsS'remove_at_ratio'
p71
I00
sS'stop_ratio'
p72
F2
sS'is_finished'
p73
I01
sbasb.